; Function Attrs: mustprogress nofree norecurse nosync nounwind willreturn memory(read, inaccessiblemem: none) uwtable
define noundef i32 @_ZN6icu_7714MessagePattern10skipDoubleEi(ptr noundef nonnull readonly align 8 captures(none) dereferenceable(127) %0, i32 noundef %1) local_unnamed_addr #8 align 2 {
  %3 = getelementptr inbounds nuw i8, ptr %0, i64 24
  %4 = load i16, ptr %3, align 8, !tbaa !19
  %5 = icmp slt i16 %4, 0
  %6 = ashr i16 %4, 5
  %7 = sext i16 %6 to i32
  %8 = getelementptr inbounds nuw i8, ptr %0, i64 28
  %9 = load i32, ptr %8, align 4
  %10 = select i1 %5, i32 %9, i32 %7
  %11 = icmp slt i32 %1, %10
  %12 = icmp ult i32 %1, %10
  %or.cond48 = and i1 %11, %12
  br i1 %or.cond48, label %_ZNK6icu_7713UnicodeString6charAtEi.exit.lr.ph, label %.thread44

_ZNK6icu_7713UnicodeString6charAtEi.exit.lr.ph:   ; preds = %2
  %13 = and i16 %4, 2
  %.not.i.i.i = icmp eq i16 %13, 0
  %14 = getelementptr inbounds nuw i8, ptr %0, i64 26
  %15 = getelementptr inbounds nuw i8, ptr %0, i64 40
  %16 = load ptr, ptr %15, align 8
  %17 = select i1 %.not.i.i.i, ptr %16, ptr %14
  %18 = sext i32 %1 to i64
  %19 = sext i32 %10 to i64
  br label %_ZNK6icu_7713UnicodeString6charAtEi.exit

_ZNK6icu_7713UnicodeString6charAtEi.exit:         ; preds = %_ZNK6icu_7713UnicodeString6charAtEi.exit.lr.ph, %.thread39
  %indvars.iv = phi i64 [ %18, %_ZNK6icu_7713UnicodeString6charAtEi.exit.lr.ph ], [ %indvars.iv.next, %.thread39 ]
  %20 = getelementptr inbounds i16, ptr %17, i64 %indvars.iv
  %21 = load i16, ptr %20, align 2, !tbaa !30
  %22 = icmp ult i16 %21, 48
  br i1 %22, label %switch.early.test, label %23

switch.early.test:                                ; preds = %_ZNK6icu_7713UnicodeString6charAtEi.exit
  switch i16 %21, label %.thread44.loopexit.split.loop.exit [
    i16 46, label %.thread39
    i16 45, label %.thread39
    i16 43, label %.thread39
  ]

23:                                               ; preds = %_ZNK6icu_7713UnicodeString6charAtEi.exit
  %24 = icmp ugt i16 %21, 57
  br i1 %24, label %switch.early.test32, label %.thread39

switch.early.test32:                              ; preds = %23
  switch i16 %21, label %.thread44.loopexit.split.loop.exit53 [
    i16 8734, label %.thread39
    i16 101, label %.thread39
    i16 69, label %.thread39
  ]

.thread39:                                        ; preds = %switch.early.test, %switch.early.test, %switch.early.test, %23, %switch.early.test32, %switch.early.test32, %switch.early.test32
  %indvars.iv.next = add nuw nsw i64 %indvars.iv, 1
  %25 = icmp slt i64 %indvars.iv.next, %19
  %26 = trunc nsw i64 %indvars.iv.next to i32
  %27 = icmp ugt i32 %10, %26
  %or.cond = and i1 %25, %27
  br i1 %or.cond, label %_ZNK6icu_7713UnicodeString6charAtEi.exit, label %.thread44

.thread44.loopexit.split.loop.exit:               ; preds = %switch.early.test
  %28 = trunc nsw i64 %indvars.iv to i32
  br label %.thread44

.thread44.loopexit.split.loop.exit53:             ; preds = %switch.early.test32
  %29 = trunc nsw i64 %indvars.iv to i32
  br label %.thread44

.thread44:                                        ; preds = %.thread39, %.thread44.loopexit.split.loop.exit, %.thread44.loopexit.split.loop.exit53, %2
  %.031.lcssa = phi i32 [ %1, %2 ], [ %28, %.thread44.loopexit.split.loop.exit ], [ %29, %.thread44.loopexit.split.loop.exit53 ], [ %10, %.thread39 ]
  ret i32 %.031.lcssa
}